target datalayout = "e-m:e-p270:32:32-p271:32:32-p272:64:64-i64:64-i128:128-f80:128-n8:16:32:64-S128"
target triple = "x86_64-pc-linux-gnu"

@.str.34 = private unnamed_addr constant [2 x i8] c"\09\00", align 1
@.str.35 = private unnamed_addr constant [2 x i8] c"\0A\00", align 1
@stdout = external global ptr, align 8

; Function Attrs: mustprogress uwtable
define internal void @_ZL11writestringPKcm(ptr noundef %0, i64 noundef %1) #0 {
  %3 = alloca ptr, align 8
  %4 = alloca i64, align 8
  store ptr %0, ptr %3, align 8
  store i64 %1, ptr %4, align 8
  %5 = load ptr, ptr %3, align 8
  %6 = load i64, ptr %4, align 8
  %7 = load ptr, ptr @stdout, align 8
  %8 = call i64 @fwrite(ptr noundef %5, i64 noundef 1, i64 noundef %6, ptr noundef %7)
  ret void
}

; Function Attrs: mustprogress uwtable
define internal noundef i32 @_ZL10luaB_printP9lua_State(ptr noundef %0) #0 {
  %2 = alloca ptr, align 8
  %3 = alloca i32, align 4
  %4 = alloca i32, align 4
  %5 = alloca i64, align 8
  %6 = alloca ptr, align 8
  store ptr %0, ptr %2, align 8
  %7 = load ptr, ptr %2, align 8
  %8 = call noundef i32 @_Z10lua_gettopP9lua_State(ptr noundef %7)
  store i32 %8, ptr %3, align 4
  store i32 1, ptr %4, align 4
  br label %9

9:                                                ; preds = %24, %1
  %10 = load i32, ptr %4, align 4
  %11 = load i32, ptr %3, align 4
  %12 = icmp sle i32 %10, %11
  br i1 %12, label %13, label %27

13:                                               ; preds = %9
  %14 = load ptr, ptr %2, align 8
  %15 = load i32, ptr %4, align 4
  %16 = call noundef ptr @_Z14luaL_tolstringP9lua_StateiPm(ptr noundef %14, i32 noundef %15, ptr noundef %5)
  store ptr %16, ptr %6, align 8
  %17 = load i32, ptr %4, align 4
  %18 = icmp sgt i32 %17, 1
  br i1 %18, label %19, label %20

19:                                               ; preds = %13
  call void @_ZL11writestringPKcm(ptr noundef @.str.34, i64 noundef 1)
  br label %20

20:                                               ; preds = %19, %13
  %21 = load ptr, ptr %6, align 8
  %22 = load i64, ptr %5, align 8
  call void @_ZL11writestringPKcm(ptr noundef %21, i64 noundef %22)
  %23 = load ptr, ptr %2, align 8
  call void @_Z10lua_settopP9lua_Statei(ptr noundef %23, i32 noundef -2)
  br label %24

24:                                               ; preds = %20
  %25 = load i32, ptr %4, align 4
  %26 = add nsw i32 %25, 1
  store i32 %26, ptr %4, align 4
  br label %9, !llvm.loop !5

27:                                               ; preds = %9
  call void @_ZL11writestringPKcm(ptr noundef @.str.35, i64 noundef 1)
  ret i32 0
}