; Function Attrs: mustprogress uwtable
define internal noundef i32 @_ZL10luaB_printP9lua_State(ptr noundef %0) #0 {
  %2 = alloca i64, align 8
  %3 = tail call noundef i32 @_Z10lua_gettopP9lua_State(ptr noundef %0)
  %.not9 = icmp slt i32 %3, 1
  br i1 %.not9, label %._crit_edge, label %.lr.ph

.lr.ph:                                           ; preds = %1, %8
  %.010 = phi i32 [ %12, %8 ], [ 1, %1 ]
  %4 = call noundef ptr @_Z14luaL_tolstringP9lua_StateiPm(ptr noundef %0, i32 noundef %.010, ptr noundef nonnull %2)
  %5 = icmp ugt i32 %.010, 1
  br i1 %5, label %6, label %8

6:                                                ; preds = %.lr.ph
  %7 = load ptr, ptr @stdout, align 8
  %fputc = call i32 @fputc(i32 9, ptr %7)
  br label %8

8:                                                ; preds = %6, %.lr.ph
  %9 = load i64, ptr %2, align 8
  %10 = load ptr, ptr @stdout, align 8
  %11 = call i64 @fwrite(ptr noundef %4, i64 noundef 1, i64 noundef %9, ptr noundef %10)
  call void @_Z10lua_settopP9lua_Statei(ptr noundef %0, i32 noundef -2)
  %12 = add nuw i32 %.010, 1
  %exitcond.not = icmp eq i32 %.010, %3
  br i1 %exitcond.not, label %._crit_edge, label %.lr.ph, !llvm.loop !5

._crit_edge:                                      ; preds = %8, %1
  %13 = load ptr, ptr @stdout, align 8
  %fputc8 = call i32 @fputc(i32 10, ptr %13)
  ret i32 0
}